target datalayout = "e-m:e-p270:32:32-p271:32:32-p272:64:64-i64:64-i128:128-f80:128-n8:16:32:64-S128"
target triple = "x86_64-pc-linux-gnu"

%struct.varattrib_1b = type { i8, [0 x i8] }
%struct.varattrib_1b_e = type { i8, i8, [0 x i8] }
%struct.anon = type { i32, [0 x i8] }
%struct.varatt_external = type { i32, i32, i32, i32 }
%struct.RelationData = type { %struct.RelFileLocator, ptr, i32, i32, i8, i8, i8, i8, i8, i32, i32, i32, i32, ptr, ptr, i32, %struct.LockInfoData, ptr, ptr, ptr, ptr, ptr, i8, ptr, ptr, ptr, ptr, ptr, ptr, i32, ptr, i8, ptr, ptr, i32, i8, i32, ptr, i8, ptr, ptr, ptr, ptr, ptr, ptr, ptr, i32, ptr, ptr, ptr, ptr, ptr, ptr, ptr, ptr, ptr, ptr, ptr, ptr, ptr, ptr, ptr, ptr, ptr, ptr, ptr, i32, i8, ptr }
%struct.RelFileLocator = type { i32, i32, i32 }
%struct.LockInfoData = type { %struct.LockRelId }
%struct.LockRelId = type { i32, i32 }
%struct.TableAmRoutine = type { i32, ptr, ptr, ptr, ptr, ptr, ptr, ptr, ptr, ptr, ptr, ptr, ptr, ptr, ptr, ptr, ptr, ptr, ptr, ptr, ptr, ptr, ptr, ptr, ptr, ptr, ptr, ptr, ptr, ptr, ptr, ptr, ptr, ptr, ptr, ptr, ptr, ptr, ptr, ptr, ptr, ptr, ptr, ptr, ptr, ptr }

@.str.1 = private unnamed_addr constant [10 x i8] c"detoast.c\00", align 1
@.str.3 = private unnamed_addr constant [66 x i8] c"toast_fetch_datum_slice shouldn't be called for non-ondisk datums\00", align 1
@__func__.toast_fetch_datum_slice = private unnamed_addr constant [24 x i8] c"toast_fetch_datum_slice\00", align 1

; Function Attrs: inlinehint nounwind uwtable
define internal void @table_relation_fetch_toast_slice(ptr noundef %0, i32 noundef %1, i32 noundef %2, i32 noundef %3, i32 noundef %4, ptr noundef %5) #4 {
  %7 = alloca ptr, align 8
  %8 = alloca i32, align 4
  %9 = alloca i32, align 4
  %10 = alloca i32, align 4
  %11 = alloca i32, align 4
  %12 = alloca ptr, align 8
  store ptr %0, ptr %7, align 8
  store i32 %1, ptr %8, align 4
  store i32 %2, ptr %9, align 4
  store i32 %3, ptr %10, align 4
  store i32 %4, ptr %11, align 4
  store ptr %5, ptr %12, align 8
  %13 = load ptr, ptr %7, align 8
  %14 = getelementptr inbounds nuw %struct.RelationData, ptr %13, i32 0, i32 47
  %15 = load ptr, ptr %14, align 8
  %16 = getelementptr inbounds nuw %struct.TableAmRoutine, ptr %15, i32 0, i32 40
  %17 = load ptr, ptr %16, align 8
  %18 = load ptr, ptr %7, align 8
  %19 = load i32, ptr %8, align 4
  %20 = load i32, ptr %9, align 4
  %21 = load i32, ptr %10, align 4
  %22 = load i32, ptr %11, align 4
  %23 = load ptr, ptr %12, align 8
  call void %17(ptr noundef %18, i32 noundef %19, i32 noundef %20, i32 noundef %21, i32 noundef %22, ptr noundef %23)
  ret void
}

; Function Attrs: nounwind uwtable
define internal ptr @toast_fetch_datum_slice(ptr noundef %0, i32 noundef %1, i32 noundef %2) #0 {
  %4 = alloca ptr, align 8
  %5 = alloca ptr, align 8
  %6 = alloca i32, align 4
  %7 = alloca i32, align 4
  %8 = alloca ptr, align 8
  %9 = alloca ptr, align 8
  %10 = alloca %struct.varatt_external, align 4
  %11 = alloca i32, align 4
  %12 = alloca ptr, align 8
  %13 = alloca i32, align 4
  store ptr %0, ptr %5, align 8
  store i32 %1, ptr %6, align 4
  store i32 %2, ptr %7, align 4
  call void @llvm.lifetime.start.p0(i64 8, ptr %8) #7
  call void @llvm.lifetime.start.p0(i64 8, ptr %9) #7
  call void @llvm.lifetime.start.p0(i64 16, ptr %10) #7
  call void @llvm.lifetime.start.p0(i64 4, ptr %11) #7
  %14 = load ptr, ptr %5, align 8
  %15 = getelementptr inbounds nuw %struct.varattrib_1b, ptr %14, i32 0, i32 0
  %16 = load i8, ptr %15, align 1
  %17 = zext i8 %16 to i32
  %18 = icmp eq i32 %17, 1
  br i1 %18, label %19, label %25

19:                                               ; preds = %3
  %20 = load ptr, ptr %5, align 8
  %21 = getelementptr inbounds nuw %struct.varattrib_1b_e, ptr %20, i32 0, i32 1
  %22 = load i8, ptr %21, align 1
  %23 = zext i8 %22 to i32
  %24 = icmp eq i32 %23, 18
  br i1 %24, label %36, label %25

25:                                               ; preds = %19, %3
  br label %26

26:                                               ; preds = %25
  br i1 true, label %27, label %29

27:                                               ; preds = %26
  %28 = call zeroext i1 @errstart_cold(i32 noundef 21, ptr noundef null) #8
  br i1 %28, label %31, label %33

29:                                               ; preds = %26
  %30 = call zeroext i1 @errstart(i32 noundef 21, ptr noundef null)
  br i1 %30, label %31, label %33

31:                                               ; preds = %29, %27
  %32 = call i32 (ptr, ...) @errmsg_internal(ptr noundef @.str.3)
  call void @errfinish(ptr noundef @.str.1, i32 noundef 405, ptr noundef @__func__.toast_fetch_datum_slice)
  br label %33

33:                                               ; preds = %31, %29, %27
  unreachable

34:                                               ; No predecessors!
  br label %35

35:                                               ; preds = %34
  br label %36

36:                                               ; preds = %35, %19
  br label %37

37:                                               ; preds = %36
  call void @llvm.lifetime.start.p0(i64 8, ptr %12) #7
  %38 = load ptr, ptr %5, align 8
  store ptr %38, ptr %12, align 8
  %39 = load ptr, ptr %12, align 8
  %40 = getelementptr inbounds nuw %struct.varattrib_1b_e, ptr %39, i32 0, i32 2
  %41 = getelementptr inbounds [0 x i8], ptr %40, i64 0, i64 0
  call void @llvm.memcpy.p0.p0.i64(ptr align 4 %10, ptr align 1 %41, i64 16, i1 false)
  call void @llvm.lifetime.end.p0(i64 8, ptr %12) #7
  br label %42

42:                                               ; preds = %37
  br label %43

43:                                               ; preds = %42
  %44 = getelementptr inbounds nuw %struct.varatt_external, ptr %10, i32 0, i32 1
  %45 = load i32, ptr %44, align 4
  %46 = and i32 %45, 1073741823
  store i32 %46, ptr %11, align 4
  %47 = load i32, ptr %6, align 4
  %48 = load i32, ptr %11, align 4
  %49 = icmp sge i32 %47, %48
  br i1 %49, label %50, label %51

50:                                               ; preds = %43
  store i32 0, ptr %6, align 4
  store i32 0, ptr %7, align 4
  br label %51

51:                                               ; preds = %50, %43
  %52 = getelementptr inbounds nuw %struct.varatt_external, ptr %10, i32 0, i32 1
  %53 = load i32, ptr %52, align 4
  %54 = and i32 %53, 1073741823
  %55 = getelementptr inbounds nuw %struct.varatt_external, ptr %10, i32 0, i32 0
  %56 = load i32, ptr %55, align 4
  %57 = sub i32 %56, 4
  %58 = icmp ult i32 %54, %57
  br i1 %58, label %59, label %67

59:                                               ; preds = %51
  %60 = load i32, ptr %7, align 4
  %61 = icmp sgt i32 %60, 0
  br i1 %61, label %62, label %67

62:                                               ; preds = %59
  %63 = load i32, ptr %7, align 4
  %64 = sext i32 %63 to i64
  %65 = add i64 %64, 4
  %66 = trunc i64 %65 to i32
  store i32 %66, ptr %7, align 4
  br label %67

67:                                               ; preds = %62, %59, %51
  %68 = load i32, ptr %6, align 4
  %69 = load i32, ptr %7, align 4
  %70 = add i32 %68, %69
  %71 = load i32, ptr %11, align 4
  %72 = icmp sgt i32 %70, %71
  br i1 %72, label %76, label %73

73:                                               ; preds = %67
  %74 = load i32, ptr %7, align 4
  %75 = icmp slt i32 %74, 0
  br i1 %75, label %76, label %80

76:                                               ; preds = %73, %67
  %77 = load i32, ptr %11, align 4
  %78 = load i32, ptr %6, align 4
  %79 = sub i32 %77, %78
  store i32 %79, ptr %7, align 4
  br label %80

80:                                               ; preds = %76, %73
  %81 = load i32, ptr %7, align 4
  %82 = add i32 %81, 4
  %83 = sext i32 %82 to i64
  %84 = call ptr @palloc(i64 noundef %83)
  store ptr %84, ptr %9, align 8
  %85 = getelementptr inbounds nuw %struct.varatt_external, ptr %10, i32 0, i32 1
  %86 = load i32, ptr %85, align 4
  %87 = and i32 %86, 1073741823
  %88 = getelementptr inbounds nuw %struct.varatt_external, ptr %10, i32 0, i32 0
  %89 = load i32, ptr %88, align 4
  %90 = sub i32 %89, 4
  %91 = icmp ult i32 %87, %90
  br i1 %91, label %92, label %99

92:                                               ; preds = %80
  %93 = load i32, ptr %7, align 4
  %94 = add i32 %93, 4
  %95 = shl i32 %94, 2
  %96 = or i32 %95, 2
  %97 = load ptr, ptr %9, align 8
  %98 = getelementptr inbounds nuw %struct.anon, ptr %97, i32 0, i32 0
  store i32 %96, ptr %98, align 4
  br label %105

99:                                               ; preds = %80
  %100 = load i32, ptr %7, align 4
  %101 = add i32 %100, 4
  %102 = shl i32 %101, 2
  %103 = load ptr, ptr %9, align 8
  %104 = getelementptr inbounds nuw %struct.anon, ptr %103, i32 0, i32 0
  store i32 %102, ptr %104, align 4
  br label %105

105:                                              ; preds = %99, %92
  %106 = load i32, ptr %7, align 4
  %107 = icmp eq i32 %106, 0
  br i1 %107, label %108, label %110

108:                                              ; preds = %105
  %109 = load ptr, ptr %9, align 8
  store ptr %109, ptr %4, align 8
  store i32 1, ptr %13, align 4
  br label %123

110:                                              ; preds = %105
  %111 = getelementptr inbounds nuw %struct.varatt_external, ptr %10, i32 0, i32 3
  %112 = load i32, ptr %111, align 4
  %113 = call ptr @table_open(i32 noundef %112, i32 noundef 1)
  store ptr %113, ptr %8, align 8
  %114 = load ptr, ptr %8, align 8
  %115 = getelementptr inbounds nuw %struct.varatt_external, ptr %10, i32 0, i32 2
  %116 = load i32, ptr %115, align 4
  %117 = load i32, ptr %11, align 4
  %118 = load i32, ptr %6, align 4
  %119 = load i32, ptr %7, align 4
  %120 = load ptr, ptr %9, align 8
  call void @table_relation_fetch_toast_slice(ptr noundef %114, i32 noundef %116, i32 noundef %117, i32 noundef %118, i32 noundef %119, ptr noundef %120)
  %121 = load ptr, ptr %8, align 8
  call void @table_close(ptr noundef %121, i32 noundef 1)
  %122 = load ptr, ptr %9, align 8
  store ptr %122, ptr %4, align 8
  store i32 1, ptr %13, align 4
  br label %123

123:                                              ; preds = %110, %108
  call void @llvm.lifetime.end.p0(i64 4, ptr %11) #7
  call void @llvm.lifetime.end.p0(i64 16, ptr %10) #7
  call void @llvm.lifetime.end.p0(i64 8, ptr %9) #7
  call void @llvm.lifetime.end.p0(i64 8, ptr %8) #7
  %124 = load ptr, ptr %4, align 8
  ret ptr %124
}