; Function Attrs: nounwind uwtable
define internal fastcc noundef ptr @toast_fetch_datum_slice(ptr noundef readonly captures(none) %0, i32 noundef range(i32 0, -2147483648) %1, i32 noundef %2) unnamed_addr #0 {
  %4 = load i8, ptr %0, align 1
  %5 = icmp eq i8 %4, 1
  br i1 %5, label %6, label %10

6:                                                ; preds = %3
  %7 = getelementptr inbounds nuw i8, ptr %0, i64 1
  %8 = load i8, ptr %7, align 1
  %9 = icmp eq i8 %8, 18
  br i1 %9, label %13, label %10

10:                                               ; preds = %6, %3
  %11 = tail call zeroext i1 @errstart_cold(i32 noundef 21, ptr noundef null) #7
  tail call void @llvm.assume(i1 %11)
  %12 = tail call i32 (ptr, ...) @errmsg_internal(ptr noundef nonnull @.str.3) #6
  tail call void @errfinish(ptr noundef nonnull @.str.1, i32 noundef 405, ptr noundef nonnull @__func__.toast_fetch_datum_slice) #6
  unreachable

13:                                               ; preds = %6
  %14 = getelementptr inbounds nuw i8, ptr %0, i64 2
  %.sroa.0.0.copyload = load i32, ptr %14, align 1
  %.sroa.5.0..sroa_idx = getelementptr inbounds nuw i8, ptr %0, i64 6
  %.sroa.5.0.copyload = load i32, ptr %.sroa.5.0..sroa_idx, align 1
  %.sroa.8.0..sroa_idx = getelementptr inbounds nuw i8, ptr %0, i64 10
  %.sroa.8.0.copyload = load i32, ptr %.sroa.8.0..sroa_idx, align 1
  %.sroa.9.0..sroa_idx = getelementptr inbounds nuw i8, ptr %0, i64 14
  %.sroa.9.0.copyload = load i32, ptr %.sroa.9.0..sroa_idx, align 1
  %15 = and i32 %.sroa.5.0.copyload, 1073741823
  %.not = icmp samesign ult i32 %1, %15
  %spec.select = select i1 %.not, i32 %2, i32 0
  %spec.select36 = select i1 %.not, i32 %1, i32 0
  %16 = add i32 %.sroa.0.0.copyload, -4
  %17 = icmp ult i32 %15, %16
  %18 = icmp sgt i32 %spec.select, 0
  %or.cond = and i1 %17, %18
  %narrow = add nuw i32 %spec.select, 4
  %.1 = select i1 %or.cond, i32 %narrow, i32 %spec.select
  %19 = add i32 %.1, %spec.select36
  %20 = icmp sgt i32 %19, %15
  %21 = icmp slt i32 %.1, 0
  %or.cond3 = or i1 %21, %20
  %22 = sub nsw i32 %15, %spec.select36
  %.2 = select i1 %or.cond3, i32 %22, i32 %.1
  %23 = add i32 %.2, 4
  %24 = sext i32 %23 to i64
  %25 = tail call ptr @palloc(i64 noundef %24) #6
  %26 = shl i32 %23, 2
  %27 = or disjoint i32 %26, 2
  %storemerge = select i1 %17, i32 %27, i32 %26
  store i32 %storemerge, ptr %25, align 4
  %28 = icmp eq i32 %.2, 0
  br i1 %28, label %35, label %29

29:                                               ; preds = %13
  %30 = tail call ptr @table_open(i32 noundef %.sroa.9.0.copyload, i32 noundef 1) #6
  %31 = getelementptr inbounds nuw i8, ptr %30, i64 320
  %32 = load ptr, ptr %31, align 8
  %33 = getelementptr inbounds nuw i8, ptr %32, i64 320
  %34 = load ptr, ptr %33, align 8
  tail call void %34(ptr noundef %30, i32 noundef %.sroa.8.0.copyload, i32 noundef range(i32 0, 1073741824) %15, i32 noundef range(i32 0, 1073741823) %spec.select36, i32 noundef range(i32 -1073741822, -2147483648) %.2, ptr noundef nonnull %25) #6
  tail call void @table_close(ptr noundef %30, i32 noundef 1) #6
  br label %35

35:                                               ; preds = %13, %29
  ret ptr %25
}